; Function Attrs: mustprogress nounwind uwtable
define internal fastcc void @_ZL22disconnect_projectionsP9MultiNodeR12PhaseIterGVN(ptr noundef nonnull %0, ptr noundef nonnull align 8 dereferenceable(2416) %1) unnamed_addr #0 {
  %3 = tail call noundef ptr @_ZNK9MultiNode16proj_out_or_nullEj(ptr noundef nonnull align 8 dereferenceable(52) %0, i32 noundef 0) #8
  %4 = tail call noundef ptr @_ZNK9MultiNode16proj_out_or_nullEj(ptr noundef nonnull align 8 dereferenceable(52) %0, i32 noundef 2) #8
  %.not = icmp eq ptr %3, null
  br i1 %.not, label %12, label %5

5:                                                ; preds = %2
  %6 = getelementptr inbounds i8, ptr %0, i64 8
  %7 = load ptr, ptr %6, align 8
  %8 = load ptr, ptr %7, align 8
  tail call void @_ZN12PhaseIterGVN21add_users_to_worklistEP4Node(ptr noundef nonnull align 8 dereferenceable(2416) %1, ptr noundef nonnull %3) #8
  %9 = getelementptr inbounds i8, ptr %1, i64 32
  %10 = load ptr, ptr %9, align 8
  %11 = tail call noundef zeroext i1 @_ZN8NodeHash11hash_deleteEPK4Node(ptr noundef nonnull align 8 dereferenceable(40) %10, ptr noundef nonnull %3) #8
  tail call void @_ZN12PhaseIterGVN12subsume_nodeEP4NodeS1_(ptr noundef nonnull align 8 dereferenceable(2416) %1, ptr noundef nonnull %3, ptr noundef %8) #8
  br label %12

12:                                               ; preds = %5, %2
  %.not11 = icmp eq ptr %4, null
  br i1 %.not11, label %21, label %13

13:                                               ; preds = %12
  %14 = getelementptr inbounds i8, ptr %0, i64 8
  %15 = load ptr, ptr %14, align 8
  %16 = getelementptr inbounds i8, ptr %15, i64 16
  %17 = load ptr, ptr %16, align 8
  tail call void @_ZN12PhaseIterGVN21add_users_to_worklistEP4Node(ptr noundef nonnull align 8 dereferenceable(2416) %1, ptr noundef nonnull %4) #8
  %18 = getelementptr inbounds i8, ptr %1, i64 32
  %19 = load ptr, ptr %18, align 8
  %20 = tail call noundef zeroext i1 @_ZN8NodeHash11hash_deleteEPK4Node(ptr noundef nonnull align 8 dereferenceable(40) %19, ptr noundef nonnull %4) #8
  tail call void @_ZN12PhaseIterGVN12subsume_nodeEP4NodeS1_(ptr noundef nonnull align 8 dereferenceable(2416) %1, ptr noundef nonnull %4, ptr noundef %17) #8
  br label %21

21:                                               ; preds = %13, %12
  ret void
}